; Function Attrs: mustprogress nounwind uwtable
define hidden void @_ZN10JfrPostBox4postE7JFR_Msg(ptr noundef nonnull align 8 dereferenceable(21) %0, i32 noundef %1) local_unnamed_addr #1 align 2 {
  %3 = shl nuw i32 1, %1
  %4 = tail call align 8 ptr @llvm.threadlocal.address.p0(ptr align 8 @_ZN6Thread12_thr_currentE)
  %5 = load ptr, ptr %4, align 8
  %6 = load ptr, ptr %5, align 8
  %7 = getelementptr inbounds i8, ptr %6, i64 56
  %8 = load ptr, ptr %7, align 8
  %9 = tail call noundef zeroext i1 %8(ptr noundef nonnull align 8 dereferenceable(888) %5) #10
  br i1 %9, label %10, label %_ZL23is_thread_lock_aversivev.exit

10:                                               ; preds = %2
  %11 = getelementptr inbounds i8, ptr %5, i64 1092
  %12 = load volatile i32, ptr %11, align 4
  %.not.i = icmp eq i32 %12, 6
  br i1 %.not.i, label %_ZL23is_thread_lock_aversivev.exit, label %_ZL23is_thread_lock_aversivev.exit.thread

_ZL23is_thread_lock_aversivev.exit:               ; preds = %2, %10
  %13 = load ptr, ptr %5, align 8
  %14 = getelementptr inbounds i8, ptr %13, i64 48
  %15 = load ptr, ptr %14, align 8
  %16 = tail call noundef zeroext i1 %15(ptr noundef nonnull align 8 dereferenceable(888) %5) #10
  br i1 %16, label %_ZL23is_thread_lock_aversivev.exit.thread, label %25

_ZL23is_thread_lock_aversivev.exit.thread:        ; preds = %10, %_ZL23is_thread_lock_aversivev.exit
  %17 = getelementptr inbounds i8, ptr %0, i64 16
  br label %18

18:                                               ; preds = %18, %_ZL23is_thread_lock_aversivev.exit.thread
  %19 = load volatile i32, ptr %17, align 8
  %20 = or i32 %19, %3
  %21 = tail call noundef i32 asm sideeffect "lock cmpxchgl $1,($3)", "={ax},r,{ax},r,~{cc},~{memory},~{dirflag},~{fpsr},~{flags}"(i32 %20, i32 %19, ptr nonnull %17) #10, !srcloc !6
  %22 = icmp eq i32 %21, %19
  %23 = and i32 %21, %3
  %24 = icmp ne i32 %23, 0
  %or.cond.i = or i1 %22, %24
  br i1 %or.cond.i, label %_ZN10JfrPostBox7depositEi.exit, label %18, !llvm.loop !7

25:                                               ; preds = %_ZL23is_thread_lock_aversivev.exit
  %26 = and i32 %3, 783
  %.not = icmp eq i32 %26, 0
  br i1 %.not, label %27, label %40

27:                                               ; preds = %25
  %28 = getelementptr inbounds i8, ptr %0, i64 16
  br label %29

29:                                               ; preds = %29, %27
  %30 = load volatile i32, ptr %28, align 8
  %31 = or i32 %30, %3
  %32 = tail call noundef i32 asm sideeffect "lock cmpxchgl $1,($3)", "={ax},r,{ax},r,~{cc},~{memory},~{dirflag},~{fpsr},~{flags}"(i32 %31, i32 %30, ptr nonnull %28) #10, !srcloc !6
  %33 = icmp eq i32 %32, %30
  %34 = and i32 %32, %3
  %35 = icmp ne i32 %34, 0
  %or.cond.i.i = or i1 %33, %35
  br i1 %or.cond.i.i, label %_ZN10JfrPostBox7depositEi.exit.i, label %29, !llvm.loop !7

_ZN10JfrPostBox7depositEi.exit.i:                 ; preds = %29
  %36 = load ptr, ptr @JfrMsg_lock, align 8
  %37 = tail call noundef zeroext i1 @_ZN5Mutex8try_lockEv(ptr noundef nonnull align 8 dereferenceable(104) %36) #10
  br i1 %37, label %38, label %_ZN10JfrPostBox7depositEi.exit

38:                                               ; preds = %_ZN10JfrPostBox7depositEi.exit.i
  %39 = load ptr, ptr @JfrMsg_lock, align 8
  tail call void @_ZN7Monitor10notify_allEv(ptr noundef nonnull align 8 dereferenceable(104) %39) #10
  tail call void @_ZN5Mutex6unlockEv(ptr noundef nonnull align 8 dereferenceable(104) %36) #10
  br label %_ZN10JfrPostBox7depositEi.exit

40:                                               ; preds = %25
  tail call void @_ZN10JfrPostBox16synchronous_postEi(ptr noundef nonnull align 8 dereferenceable(21) %0, i32 noundef %3)
  br label %_ZN10JfrPostBox7depositEi.exit

_ZN10JfrPostBox7depositEi.exit:                   ; preds = %18, %38, %_ZN10JfrPostBox7depositEi.exit.i, %40
  ret void
}